; Function Attrs: mustprogress uwtable
define hidden void @_ZN9expr_rand8get_nextEP4sortR7obj_refI4expr11ast_managerE(ptr noundef nonnull align 8 dereferenceable(56) %this, ptr noundef %s, ptr nocapture noundef nonnull align 8 dereferenceable(16) %e) local_unnamed_addr #3 align 2 {
entry:
  %m_max_steps = getelementptr inbounds i8, ptr %this, i64 8
  %0 = load i32, ptr %m_max_steps, align 8
  %cmp2.not.i = icmp eq i32 %0, 0
  br i1 %cmp2.not.i, label %_ZN9expr_rand4walkEj.exit, label %for.body.i

for.body.i:                                       ; preds = %entry, %for.body.i
  %i.03.i = phi i32 [ %inc.i, %for.body.i ], [ 0, %entry ]
  tail call void @_ZN9expr_rand4walkEv(ptr noundef nonnull align 8 dereferenceable(56) %this)
  %inc.i = add nuw i32 %i.03.i, 1
  %exitcond.not.i = icmp eq i32 %inc.i, %0
  br i1 %exitcond.not.i, label %_ZN9expr_rand4walkEj.exit, label %for.body.i, !llvm.loop !10

_ZN9expr_rand4walkEj.exit:                        ; preds = %for.body.i, %entry
  %call = tail call noundef ptr @_ZN9expr_rand11choose_exprEP4sort(ptr noundef nonnull align 8 dereferenceable(56) %this, ptr noundef %s)
  %tobool.not.i = icmp eq ptr %call, null
  br i1 %tobool.not.i, label %if.end.i, label %_ZN11ast_manager7inc_refEP3ast.exit.i

_ZN11ast_manager7inc_refEP3ast.exit.i:            ; preds = %_ZN9expr_rand4walkEj.exit
  %m_ref_count.i.i.i = getelementptr inbounds i8, ptr %call, i64 8
  %1 = load i32, ptr %m_ref_count.i.i.i, align 4
  %inc.i.i.i = add i32 %1, 1
  store i32 %inc.i.i.i, ptr %m_ref_count.i.i.i, align 4
  br label %if.end.i

if.end.i:                                         ; preds = %_ZN11ast_manager7inc_refEP3ast.exit.i, %_ZN9expr_rand4walkEj.exit
  %2 = load ptr, ptr %e, align 8
  %tobool.not.i3.i = icmp eq ptr %2, null
  br i1 %tobool.not.i3.i, label %_ZN7obj_refI4expr11ast_managerEaSEPS0_.exit, label %if.then.i.i.i

if.then.i.i.i:                                    ; preds = %if.end.i
  %m_manager.i.i = getelementptr inbounds i8, ptr %e, i64 8
  %3 = load ptr, ptr %m_manager.i.i, align 8
  %m_ref_count.i.i.i.i = getelementptr inbounds i8, ptr %2, i64 8
  %4 = load i32, ptr %m_ref_count.i.i.i.i, align 4
  %dec.i.i.i.i = add i32 %4, -1
  store i32 %dec.i.i.i.i, ptr %m_ref_count.i.i.i.i, align 4
  %cmp.i.i.i = icmp eq i32 %dec.i.i.i.i, 0
  br i1 %cmp.i.i.i, label %if.then2.i.i.i, label %_ZN7obj_refI4expr11ast_managerEaSEPS0_.exit

if.then2.i.i.i:                                   ; preds = %if.then.i.i.i
  tail call void @_ZN11ast_manager11delete_nodeEP3ast(ptr noundef nonnull align 8 dereferenceable(976) %3, ptr noundef nonnull %2)
  br label %_ZN7obj_refI4expr11ast_managerEaSEPS0_.exit

_ZN7obj_refI4expr11ast_managerEaSEPS0_.exit:      ; preds = %if.end.i, %if.then.i.i.i, %if.then2.i.i.i
  store ptr %call, ptr %e, align 8
  ret void
}